; ModuleID = '39/1723.c'
source_filename = "39/1723.c"
target datalayout = "e-m:e-p270:32:32-p271:32:32-p272:64:64-i64:64-f80:128-n8:16:32:64-S128"
target triple = "x86_64-pc-linux-gnu"

%struct.student = type { [20 x i8], i32, i32, i8, i8, i32 }

@.str = private unnamed_addr constant [3 x i8] c"%d\00", align 1
@.str.1 = private unnamed_addr constant [18 x i8] c"%s %d %d %c %c %d\00", align 1
@.str.2 = private unnamed_addr constant [4 x i8] c"%s\0A\00", align 1
@.str.3 = private unnamed_addr constant [4 x i8] c"%d\0A\00", align 1

; Function Attrs: noinline nounwind uwtable
define dso_local i32 @main() #0 {
  %1 = alloca i32, align 4
  %2 = alloca [20000 x %struct.student], align 16
  %3 = alloca i32, align 4
  %4 = alloca i32, align 4
  %5 = alloca i32, align 4
  %6 = alloca i32, align 4
  %7 = alloca i32, align 4
  %8 = alloca i32, align 4
  store i32 0, i32* %1, align 4
  store i32 0, i32* %7, align 4
  store i32 0, i32* %8, align 4
  %9 = call i32 (i8*, ...) @__isoc99_scanf(i8* getelementptr inbounds ([3 x i8], [3 x i8]* @.str, i64 0, i64 0), i32* %3)
  store i32 0, i32* %4, align 4
  br label %10

10:                                               ; preds = %131, %0
  %11 = load i32, i32* %4, align 4
  %12 = load i32, i32* %3, align 4
  %13 = icmp slt i32 %11, %12
  br i1 %13, label %14, label %134

14:                                               ; preds = %10
  store i32 0, i32* %6, align 4
  %15 = load i32, i32* %4, align 4
  %16 = sext i32 %15 to i64
  %17 = getelementptr inbounds [20000 x %struct.student], [20000 x %struct.student]* %2, i64 0, i64 %16
  %18 = getelementptr inbounds %struct.student, %struct.student* %17, i32 0, i32 0
  %19 = getelementptr inbounds [20 x i8], [20 x i8]* %18, i64 0, i64 0
  %20 = load i32, i32* %4, align 4
  %21 = sext i32 %20 to i64
  %22 = getelementptr inbounds [20000 x %struct.student], [20000 x %struct.student]* %2, i64 0, i64 %21
  %23 = getelementptr inbounds %struct.student, %struct.student* %22, i32 0, i32 1
  %24 = load i32, i32* %4, align 4
  %25 = sext i32 %24 to i64
  %26 = getelementptr inbounds [20000 x %struct.student], [20000 x %struct.student]* %2, i64 0, i64 %25
  %27 = getelementptr inbounds %struct.student, %struct.student* %26, i32 0, i32 2
  %28 = load i32, i32* %4, align 4
  %29 = sext i32 %28 to i64
  %30 = getelementptr inbounds [20000 x %struct.student], [20000 x %struct.student]* %2, i64 0, i64 %29
  %31 = getelementptr inbounds %struct.student, %struct.student* %30, i32 0, i32 3
  %32 = load i32, i32* %4, align 4
  %33 = sext i32 %32 to i64
  %34 = getelementptr inbounds [20000 x %struct.student], [20000 x %struct.student]* %2, i64 0, i64 %33
  %35 = getelementptr inbounds %struct.student, %struct.student* %34, i32 0, i32 4
  %36 = load i32, i32* %4, align 4
  %37 = sext i32 %36 to i64
  %38 = getelementptr inbounds [20000 x %struct.student], [20000 x %struct.student]* %2, i64 0, i64 %37
  %39 = getelementptr inbounds %struct.student, %struct.student* %38, i32 0, i32 5
  %40 = call i32 (i8*, ...) @__isoc99_scanf(i8* getelementptr inbounds ([18 x i8], [18 x i8]* @.str.1, i64 0, i64 0), i8* %19, i32* %23, i32* %27, i8* %31, i8* %35, i32* %39)
  %41 = load i32, i32* %4, align 4
  %42 = sext i32 %41 to i64
  %43 = getelementptr inbounds [20000 x %struct.student], [20000 x %struct.student]* %2, i64 0, i64 %42
  %44 = getelementptr inbounds %struct.student, %struct.student* %43, i32 0, i32 1
  %45 = load i32, i32* %44, align 4
  %46 = icmp sgt i32 %45, 80
  br i1 %46, label %47, label %57

47:                                               ; preds = %14
  %48 = load i32, i32* %4, align 4
  %49 = sext i32 %48 to i64
  %50 = getelementptr inbounds [20000 x %struct.student], [20000 x %struct.student]* %2, i64 0, i64 %49
  %51 = getelementptr inbounds %struct.student, %struct.student* %50, i32 0, i32 5
  %52 = load i32, i32* %51, align 4
  %53 = icmp sgt i32 %52, 0
  br i1 %53, label %54, label %57

54:                                               ; preds = %47
  %55 = load i32, i32* %6, align 4
  %56 = add nsw i32 %55, 8000
  store i32 %56, i32* %6, align 4
  br label %57

57:                                               ; preds = %54, %47, %14
  %58 = load i32, i32* %4, align 4
  %59 = sext i32 %58 to i64
  %60 = getelementptr inbounds [20000 x %struct.student], [20000 x %struct.student]* %2, i64 0, i64 %59
  %61 = getelementptr inbounds %struct.student, %struct.student* %60, i32 0, i32 1
  %62 = load i32, i32* %61, align 4
  %63 = icmp sgt i32 %62, 85
  br i1 %63, label %64, label %74

64:                                               ; preds = %57
  %65 = load i32, i32* %4, align 4
  %66 = sext i32 %65 to i64
  %67 = getelementptr inbounds [20000 x %struct.student], [20000 x %struct.student]* %2, i64 0, i64 %66
  %68 = getelementptr inbounds %struct.student, %struct.student* %67, i32 0, i32 2
  %69 = load i32, i32* %68, align 4
  %70 = icmp sgt i32 %69, 80
  br i1 %70, label %71, label %74

71:                                               ; preds = %64
  %72 = load i32, i32* %6, align 4
  %73 = add nsw i32 %72, 4000
  store i32 %73, i32* %6, align 4
  br label %74

74:                                               ; preds = %71, %64, %57
  %75 = load i32, i32* %4, align 4
  %76 = sext i32 %75 to i64
  %77 = getelementptr inbounds [20000 x %struct.student], [20000 x %struct.student]* %2, i64 0, i64 %76
  %78 = getelementptr inbounds %struct.student, %struct.student* %77, i32 0, i32 1
  %79 = load i32, i32* %78, align 4
  %80 = icmp sgt i32 %79, 90
  br i1 %80, label %81, label %84

81:                                               ; preds = %74
  %82 = load i32, i32* %6, align 4
  %83 = add nsw i32 %82, 2000
  store i32 %83, i32* %6, align 4
  br label %84

84:                                               ; preds = %81, %74
  %85 = load i32, i32* %4, align 4
  %86 = sext i32 %85 to i64
  %87 = getelementptr inbounds [20000 x %struct.student], [20000 x %struct.student]* %2, i64 0, i64 %86
  %88 = getelementptr inbounds %struct.student, %struct.student* %87, i32 0, i32 1
  %89 = load i32, i32* %88, align 4
  %90 = icmp sgt i32 %89, 85
  br i1 %90, label %91, label %102

91:                                               ; preds = %84
  %92 = load i32, i32* %4, align 4
  %93 = sext i32 %92 to i64
  %94 = getelementptr inbounds [20000 x %struct.student], [20000 x %struct.student]* %2, i64 0, i64 %93
  %95 = getelementptr inbounds %struct.student, %struct.student* %94, i32 0, i32 4
  %96 = load i8, i8* %95, align 1
  %97 = sext i8 %96 to i32
  %98 = icmp eq i32 %97, 89
  br i1 %98, label %99, label %102

99:                                               ; preds = %91
  %100 = load i32, i32* %6, align 4
  %101 = add nsw i32 %100, 1000
  store i32 %101, i32* %6, align 4
  br label %102

102:                                              ; preds = %99, %91, %84
  %103 = load i32, i32* %4, align 4
  %104 = sext i32 %103 to i64
  %105 = getelementptr inbounds [20000 x %struct.student], [20000 x %struct.student]* %2, i64 0, i64 %104
  %106 = getelementptr inbounds %struct.student, %struct.student* %105, i32 0, i32 2
  %107 = load i32, i32* %106, align 4
  %108 = icmp sgt i32 %107, 80
  br i1 %108, label %109, label %120

109:                                              ; preds = %102
  %110 = load i32, i32* %4, align 4
  %111 = sext i32 %110 to i64
  %112 = getelementptr inbounds [20000 x %struct.student], [20000 x %struct.student]* %2, i64 0, i64 %111
  %113 = getelementptr inbounds %struct.student, %struct.student* %112, i32 0, i32 3
  %114 = load i8, i8* %113, align 4
  %115 = sext i8 %114 to i32
  %116 = icmp eq i32 %115, 89
  br i1 %116, label %117, label %120

117:                                              ; preds = %109
  %118 = load i32, i32* %6, align 4
  %119 = add nsw i32 %118, 850
  store i32 %119, i32* %6, align 4
  br label %120

120:                                              ; preds = %117, %109, %102
  %121 = load i32, i32* %7, align 4
  %122 = load i32, i32* %6, align 4
  %123 = add nsw i32 %121, %122
  store i32 %123, i32* %7, align 4
  %124 = load i32, i32* %6, align 4
  %125 = load i32, i32* %8, align 4
  %126 = icmp sgt i32 %124, %125
  br i1 %126, label %127, label %130

127:                                              ; preds = %120
  %128 = load i32, i32* %6, align 4
  store i32 %128, i32* %8, align 4
  %129 = load i32, i32* %4, align 4
  store i32 %129, i32* %5, align 4
  br label %130

130:                                              ; preds = %127, %120
  br label %131

131:                                              ; preds = %130
  %132 = load i32, i32* %4, align 4
  %133 = add nsw i32 %132, 1
  store i32 %133, i32* %4, align 4
  br label %10

134:                                              ; preds = %10
  %135 = load i32, i32* %5, align 4
  %136 = sext i32 %135 to i64
  %137 = getelementptr inbounds [20000 x %struct.student], [20000 x %struct.student]* %2, i64 0, i64 %136
  %138 = getelementptr inbounds %struct.student, %struct.student* %137, i32 0, i32 0
  %139 = getelementptr inbounds [20 x i8], [20 x i8]* %138, i64 0, i64 0
  %140 = call i32 (i8*, ...) @printf(i8* getelementptr inbounds ([4 x i8], [4 x i8]* @.str.2, i64 0, i64 0), i8* %139)
  %141 = load i32, i32* %8, align 4
  %142 = call i32 (i8*, ...) @printf(i8* getelementptr inbounds ([4 x i8], [4 x i8]* @.str.3, i64 0, i64 0), i32 %141)
  %143 = load i32, i32* %7, align 4
  %144 = call i32 (i8*, ...) @printf(i8* getelementptr inbounds ([3 x i8], [3 x i8]* @.str, i64 0, i64 0), i32 %143)
  ret i32 0
}

declare dso_local i32 @__isoc99_scanf(i8*, ...) #1

declare dso_local i32 @printf(i8*, ...) #1


!llvm.module.flags = !{!0}
!llvm.ident = !{!1}

!0 = !{i32 1, !"wchar_size", i32 4}
!1 = !{!"clang version 10.0.0-4ubuntu1 "}
